target datalayout = "e-m:e-p270:32:32-p271:32:32-p272:64:64-i64:64-i128:128-f80:128-n8:16:32:64-S128"
target triple = "x86_64-pc-linux-gnu"

%struct._FUserData = type { ptr, ptr, ptr, ptr, ptr, ptr, ptr, ptr, ptr }

; Function Attrs: nounwind uwtable
define void @ipsetcallback_(ptr noundef %0, ptr noundef %1) #0 {
  %3 = alloca ptr, align 8
  %4 = alloca ptr, align 8
  %5 = alloca ptr, align 8
  store ptr %0, ptr %3, align 8, !tbaa !32
  store ptr %1, ptr %4, align 8, !tbaa !10
  call void @llvm.lifetime.start.p0(i64 8, ptr %5) #6
  %6 = load ptr, ptr %3, align 8, !tbaa !32
  %7 = load ptr, ptr %6, align 8, !tbaa !10
  store ptr %7, ptr %5, align 8, !tbaa !13
  %8 = load ptr, ptr %4, align 8, !tbaa !10
  %9 = load ptr, ptr %5, align 8, !tbaa !13
  %10 = getelementptr inbounds nuw %struct._FUserData, ptr %9, i32 0, i32 7
  store ptr %8, ptr %10, align 8, !tbaa !23
  %11 = load ptr, ptr %5, align 8, !tbaa !13
  %12 = getelementptr inbounds nuw %struct._FUserData, ptr %11, i32 0, i32 8
  %13 = load ptr, ptr %12, align 8, !tbaa !15
  %14 = call zeroext i1 @SetIntermediateCallback(ptr noundef %13, ptr noundef @intermediate_cb)
  call void @llvm.lifetime.end.p0(i64 8, ptr %5) #6
  ret void
}