; Function Attrs: nounwind uwtable
define void @ipsetcallback_(ptr noundef readonly captures(none) %0, ptr noundef %1) local_unnamed_addr #0 {
  %3 = load ptr, ptr %0, align 8, !tbaa !23
  %4 = getelementptr inbounds nuw i8, ptr %3, i64 56
  store ptr %1, ptr %4, align 8, !tbaa !18
  %5 = getelementptr inbounds nuw i8, ptr %3, i64 64
  %6 = load ptr, ptr %5, align 8, !tbaa !7
  %7 = tail call zeroext i1 @SetIntermediateCallback(ptr noundef %6, ptr noundef nonnull @intermediate_cb) #8
  ret void
}